; Function Attrs: nounwind uwtable
define hidden void @SDL_AddMouse(i32 noundef %0, ptr noundef %1, i1 noundef zeroext %2) local_unnamed_addr #0 {
  %4 = alloca %union.SDL_Event, align 8
  %5 = load i32, ptr @SDL_mouse_count, align 4
  %.not9.i = icmp sgt i32 %5, 0
  %.pre = load ptr, ptr @SDL_mice, align 8
  br i1 %.not9.i, label %.lr.ph.i, label %SDL_GetMouseIndex.exit.thread

.lr.ph.i:                                         ; preds = %3
  %wide.trip.count.i = zext nneg i32 %5 to i64
  br label %6

6:                                                ; preds = %10, %.lr.ph.i
  %indvars.iv.i = phi i64 [ 0, %.lr.ph.i ], [ %indvars.iv.next.i, %10 ]
  %7 = getelementptr inbounds nuw %struct.SDL_MouseInstance, ptr %.pre, i64 %indvars.iv.i
  %8 = load i32, ptr %7, align 8
  %9 = icmp eq i32 %0, %8
  br i1 %9, label %SDL_GetMouseIndex.exit, label %10

10:                                               ; preds = %6
  %indvars.iv.next.i = add nuw nsw i64 %indvars.iv.i, 1
  %exitcond.not.i = icmp eq i64 %indvars.iv.next.i, %wide.trip.count.i
  br i1 %exitcond.not.i, label %SDL_GetMouseIndex.exit.thread, label %6, !llvm.loop !7

SDL_GetMouseIndex.exit.thread:                    ; preds = %10, %3
  %11 = add nsw i32 %5, 1
  %12 = sext i32 %11 to i64
  %13 = shl nsw i64 %12, 4
  %14 = tail call ptr @SDL_realloc_REAL(ptr noundef %.pre, i64 noundef %13) #15
  %.not = icmp eq ptr %14, null
  br i1 %.not, label %SDL_GetMouseIndex.exit, label %15

15:                                               ; preds = %SDL_GetMouseIndex.exit.thread
  %16 = load i32, ptr @SDL_mouse_count, align 4
  %17 = sext i32 %16 to i64
  %18 = getelementptr inbounds %struct.SDL_MouseInstance, ptr %14, i64 %17
  store i32 %0, ptr %18, align 8
  %.not11 = icmp eq ptr %1, null
  %19 = select i1 %.not11, ptr @.str.15, ptr %1
  %20 = tail call noalias ptr @SDL_strdup_REAL(ptr noundef nonnull %19) #13
  %21 = getelementptr inbounds nuw i8, ptr %18, i64 8
  store ptr %20, ptr %21, align 8
  store ptr %14, ptr @SDL_mice, align 8
  %22 = load i32, ptr @SDL_mouse_count, align 4
  %23 = add nsw i32 %22, 1
  store i32 %23, ptr @SDL_mouse_count, align 4
  br i1 %2, label %24, label %SDL_GetMouseIndex.exit

24:                                               ; preds = %15
  call void @llvm.lifetime.start.p0(i64 128, ptr nonnull %4) #13
  call void @llvm.memset.p0.i64(ptr noundef nonnull align 8 dereferenceable(128) %4, i8 0, i64 128, i1 false)
  store i32 1028, ptr %4, align 8
  %25 = getelementptr inbounds nuw i8, ptr %4, i64 16
  store i32 %0, ptr %25, align 8
  %26 = call zeroext i1 @SDL_PushEvent_REAL(ptr noundef nonnull %4) #13
  call void @llvm.lifetime.end.p0(i64 128, ptr nonnull %4) #13
  br label %SDL_GetMouseIndex.exit

SDL_GetMouseIndex.exit:                           ; preds = %6, %SDL_GetMouseIndex.exit.thread, %24, %15
  ret void
}